target datalayout = "e-m:e-p270:32:32-p271:32:32-p272:64:64-i64:64-i128:128-f80:128-n8:16:32:64-S128"
target triple = "x86_64-pc-linux-gnu"

@H5R_init_g = global i8 0, align 1
@H5_libterm_g = external global i8, align 1
@.str = private unnamed_addr constant [100 x i8] c"generated/home/dtcxzyw/WorkSpace/Projects/compilers/llvm-opt-benchmark/bench/hdf5/hdf5/src/H5Rint.c\00", align 1
@H5E_REFERENCE_g = external global i64, align 8
@H5E_CANTDECODE_g = external global i64, align 8
@.str.31 = private unnamed_addr constant [25 x i8] c"Buffer size is too small\00", align 1
@__func__.H5R__decode_string = private unnamed_addr constant [19 x i8] c"H5R__decode_string\00", align 1
@H5E_CANTALLOC_g = external global i64, align 8
@.str.53 = private unnamed_addr constant [23 x i8] c"Cannot allocate string\00", align 1

; Function Attrs: nounwind uwtable
define internal i32 @H5R__decode_string(ptr noundef %0, ptr noundef %1, ptr noundef %2) #0 {
  %4 = alloca ptr, align 8
  %5 = alloca ptr, align 8
  %6 = alloca ptr, align 8
  %7 = alloca ptr, align 8
  %8 = alloca i64, align 8
  %9 = alloca ptr, align 8
  %10 = alloca i32, align 4
  %11 = alloca i8, align 1
  store ptr %0, ptr %4, align 8, !tbaa !24
  store ptr %1, ptr %5, align 8, !tbaa !26
  store ptr %2, ptr %6, align 8, !tbaa !42
  call void @llvm.lifetime.start.p0(i64 8, ptr %7) #9
  %12 = load ptr, ptr %4, align 8, !tbaa !24
  store ptr %12, ptr %7, align 8, !tbaa !24
  call void @llvm.lifetime.start.p0(i64 8, ptr %8) #9
  call void @llvm.lifetime.start.p0(i64 8, ptr %9) #9
  store ptr null, ptr %9, align 8, !tbaa !24
  call void @llvm.lifetime.start.p0(i64 4, ptr %10) #9
  store i32 0, ptr %10, align 4, !tbaa !16
  call void @llvm.lifetime.start.p0(i64 1, ptr %11) #9
  store i8 0, ptr %11, align 1, !tbaa !3
  %13 = load i8, ptr @H5R_init_g, align 1, !tbaa !3, !range !7, !noundef !8
  %14 = trunc i8 %13 to i1
  br i1 %14, label %19, label %15

15:                                               ; preds = %3
  %16 = load i8, ptr @H5_libterm_g, align 1, !tbaa !3, !range !7, !noundef !8
  %17 = trunc i8 %16 to i1
  %18 = xor i1 %17, true
  br label %19

19:                                               ; preds = %15, %3
  %20 = phi i1 [ true, %3 ], [ %18, %15 ]
  %21 = xor i1 %20, true
  %22 = xor i1 %21, true
  %23 = zext i1 %22 to i32
  %24 = sext i32 %23 to i64
  %25 = call i64 @llvm.expect.i64(i64 %24, i64 1)
  %26 = icmp ne i64 %25, 0
  br i1 %26, label %27, label %109

27:                                               ; preds = %19
  %28 = load ptr, ptr %5, align 8, !tbaa !26
  %29 = load i64, ptr %28, align 8, !tbaa !12
  %30 = icmp ult i64 %29, 2
  br i1 %30, label %31, label %50

31:                                               ; preds = %27
  br label %32

32:                                               ; preds = %31
  br label %33

33:                                               ; preds = %32
  br label %34

34:                                               ; preds = %33
  %35 = load i64, ptr @H5E_REFERENCE_g, align 8, !tbaa !12
  %36 = load i64, ptr @H5E_CANTDECODE_g, align 8, !tbaa !12
  %37 = call i32 (ptr, ptr, i32, i64, i64, ptr, ...) @H5E_printf_stack(ptr noundef @.str, ptr noundef @__func__.H5R__decode_string, i32 noundef 1320, i64 noundef %35, i64 noundef %36, ptr noundef @.str.31)
  br label %38

38:                                               ; preds = %34
  br label %39

39:                                               ; preds = %38
  store i8 1, ptr %11, align 1, !tbaa !3
  %40 = load i8, ptr %11, align 1, !tbaa !3, !range !7, !noundef !8
  %41 = trunc i8 %40 to i1
  %42 = zext i1 %41 to i8
  store i8 %42, ptr %11, align 1, !tbaa !3
  br label %43

43:                                               ; preds = %39
  br label %44

44:                                               ; preds = %43
  br label %45

45:                                               ; preds = %44
  store i32 -1, ptr %10, align 4, !tbaa !16
  br label %108

46:                                               ; No predecessors!
  br label %47

47:                                               ; preds = %46
  br label %48

48:                                               ; preds = %47
  br label %49

49:                                               ; preds = %48
  br label %50

50:                                               ; preds = %49, %27
  br label %51

51:                                               ; preds = %50
  %52 = load ptr, ptr %7, align 8, !tbaa !24
  %53 = load i8, ptr %52, align 1, !tbaa !18
  %54 = zext i8 %53 to i32
  %55 = and i32 %54, 255
  %56 = trunc i32 %55 to i16
  %57 = zext i16 %56 to i64
  store i64 %57, ptr %8, align 8, !tbaa !12
  %58 = load ptr, ptr %7, align 8, !tbaa !24
  %59 = getelementptr inbounds nuw i8, ptr %58, i32 1
  store ptr %59, ptr %7, align 8, !tbaa !24
  %60 = load ptr, ptr %7, align 8, !tbaa !24
  %61 = load i8, ptr %60, align 1, !tbaa !18
  %62 = zext i8 %61 to i32
  %63 = and i32 %62, 255
  %64 = shl i32 %63, 8
  %65 = trunc i32 %64 to i16
  %66 = zext i16 %65 to i64
  %67 = load i64, ptr %8, align 8, !tbaa !12
  %68 = or i64 %67, %66
  store i64 %68, ptr %8, align 8, !tbaa !12
  %69 = load ptr, ptr %7, align 8, !tbaa !24
  %70 = getelementptr inbounds nuw i8, ptr %69, i32 1
  store ptr %70, ptr %7, align 8, !tbaa !24
  br label %71

71:                                               ; preds = %51
  br label %72

72:                                               ; preds = %71
  %73 = load i64, ptr %8, align 8, !tbaa !12
  %74 = add i64 %73, 1
  %75 = call noalias ptr @malloc(i64 noundef %74) #11
  store ptr %75, ptr %9, align 8, !tbaa !24
  %76 = icmp eq ptr null, %75
  br i1 %76, label %77, label %96

77:                                               ; preds = %72
  br label %78

78:                                               ; preds = %77
  br label %79

79:                                               ; preds = %78
  br label %80

80:                                               ; preds = %79
  %81 = load i64, ptr @H5E_REFERENCE_g, align 8, !tbaa !12
  %82 = load i64, ptr @H5E_CANTALLOC_g, align 8, !tbaa !12
  %83 = call i32 (ptr, ptr, i32, i64, i64, ptr, ...) @H5E_printf_stack(ptr noundef @.str, ptr noundef @__func__.H5R__decode_string, i32 noundef 1328, i64 noundef %81, i64 noundef %82, ptr noundef @.str.53)
  br label %84

84:                                               ; preds = %80
  br label %85

85:                                               ; preds = %84
  store i8 1, ptr %11, align 1, !tbaa !3
  %86 = load i8, ptr %11, align 1, !tbaa !3, !range !7, !noundef !8
  %87 = trunc i8 %86 to i1
  %88 = zext i1 %87 to i8
  store i8 %88, ptr %11, align 1, !tbaa !3
  br label %89

89:                                               ; preds = %85
  br label %90

90:                                               ; preds = %89
  br label %91

91:                                               ; preds = %90
  store i32 -1, ptr %10, align 4, !tbaa !16
  br label %108

92:                                               ; No predecessors!
  br label %93

93:                                               ; preds = %92
  br label %94

94:                                               ; preds = %93
  br label %95

95:                                               ; preds = %94
  br label %96

96:                                               ; preds = %95, %72
  %97 = load ptr, ptr %9, align 8, !tbaa !24
  %98 = load ptr, ptr %7, align 8, !tbaa !24
  %99 = load i64, ptr %8, align 8, !tbaa !12
  call void @llvm.memcpy.p0.p0.i64(ptr align 1 %97, ptr align 1 %98, i64 %99, i1 false)
  %100 = load ptr, ptr %9, align 8, !tbaa !24
  %101 = load i64, ptr %8, align 8, !tbaa !12
  %102 = getelementptr inbounds nuw i8, ptr %100, i64 %101
  store i8 0, ptr %102, align 1, !tbaa !18
  %103 = load ptr, ptr %9, align 8, !tbaa !24
  %104 = load ptr, ptr %6, align 8, !tbaa !42
  store ptr %103, ptr %104, align 8, !tbaa !24
  %105 = load i64, ptr %8, align 8, !tbaa !12
  %106 = add i64 2, %105
  %107 = load ptr, ptr %5, align 8, !tbaa !26
  store i64 %106, ptr %107, align 8, !tbaa !12
  br label %108

108:                                              ; preds = %96, %91, %45
  br label %109

109:                                              ; preds = %108, %19
  %110 = load i32, ptr %10, align 4, !tbaa !16
  call void @llvm.lifetime.end.p0(i64 1, ptr %11) #9
  call void @llvm.lifetime.end.p0(i64 4, ptr %10) #9
  call void @llvm.lifetime.end.p0(i64 8, ptr %9) #9
  call void @llvm.lifetime.end.p0(i64 8, ptr %8) #9
  call void @llvm.lifetime.end.p0(i64 8, ptr %7) #9
  ret i32 %110
}