; Function Attrs: nounwind uwtable
define internal fastcc range(i32 -1, 1) i32 @H5R__decode_string(ptr noundef readonly captures(none) %0, ptr noundef nonnull captures(none) %1, ptr noundef writeonly captures(none) %2) unnamed_addr #1 {
  %4 = load i8, ptr @H5R_init_g, align 1, !tbaa !3, !range !7, !noundef !8
  %5 = trunc nuw i8 %4 to i1
  %6 = load i8, ptr @H5_libterm_g, align 1, !range !7
  %7 = trunc nuw i8 %6 to i1
  %8 = xor i1 %7, true
  %9 = select i1 %5, i1 true, i1 %8
  br i1 %9, label %10, label %36, !prof !9

10:                                               ; preds = %3
  %11 = load i64, ptr %1, align 8, !tbaa !17
  %12 = icmp ult i64 %11, 2
  br i1 %12, label %13, label %17

13:                                               ; preds = %10
  %14 = load i64, ptr @H5E_REFERENCE_g, align 8, !tbaa !17
  %15 = load i64, ptr @H5E_CANTDECODE_g, align 8, !tbaa !17
  %16 = tail call i32 (ptr, ptr, i32, i64, i64, ptr, ...) @H5E_printf_stack(ptr noundef nonnull @.str, ptr noundef nonnull @__func__.H5R__decode_string, i32 noundef 1320, i64 noundef %14, i64 noundef %15, ptr noundef nonnull @.str.31) #15
  br label %36

17:                                               ; preds = %10
  %18 = load i8, ptr %0, align 1, !tbaa !10
  %19 = zext i8 %18 to i64
  %20 = getelementptr inbounds nuw i8, ptr %0, i64 1
  %21 = load i8, ptr %20, align 1, !tbaa !10
  %22 = zext i8 %21 to i64
  %23 = shl nuw nsw i64 %22, 8
  %24 = or disjoint i64 %23, %19
  %25 = add nuw nsw i64 %24, 1
  %26 = tail call noalias ptr @malloc(i64 noundef %25) #17
  %27 = icmp eq ptr %26, null
  br i1 %27, label %28, label %32

28:                                               ; preds = %17
  %29 = load i64, ptr @H5E_REFERENCE_g, align 8, !tbaa !17
  %30 = load i64, ptr @H5E_CANTALLOC_g, align 8, !tbaa !17
  %31 = tail call i32 (ptr, ptr, i32, i64, i64, ptr, ...) @H5E_printf_stack(ptr noundef nonnull @.str, ptr noundef nonnull @__func__.H5R__decode_string, i32 noundef 1328, i64 noundef %29, i64 noundef %30, ptr noundef nonnull @.str.53) #15
  br label %36

32:                                               ; preds = %17
  %33 = getelementptr inbounds nuw i8, ptr %0, i64 2
  tail call void @llvm.memcpy.p0.p0.i64(ptr nonnull align 1 %26, ptr nonnull align 1 %33, i64 %24, i1 false)
  %34 = getelementptr inbounds nuw i8, ptr %26, i64 %24
  store i8 0, ptr %34, align 1, !tbaa !10
  store ptr %26, ptr %2, align 8, !tbaa !19
  %35 = add nuw nsw i64 %24, 2
  store i64 %35, ptr %1, align 8, !tbaa !17
  br label %36

36:                                               ; preds = %13, %28, %32, %3
  %.0 = phi i32 [ -1, %13 ], [ -1, %28 ], [ 0, %32 ], [ 0, %3 ]
  ret i32 %.0
}